target datalayout = "e-m:e-p270:32:32-p271:32:32-p272:64:64-i64:64-i128:128-f80:128-n8:16:32:64-S128"
target triple = "x86_64-pc-linux-gnu"

%struct.DECODER_CACHE = type { ptr, ptr }

@.str = private unnamed_addr constant [47 x i8] c"../openssl/crypto/encode_decode/decoder_pkey.c\00", align 1

; Function Attrs: inlinehint nounwind uwtable
define internal ptr @lh_DECODER_CACHE_ENTRY_new(ptr noundef %0, ptr noundef %1) #3 {
  %3 = alloca ptr, align 8
  %4 = alloca ptr, align 8
  store ptr %0, ptr %3, align 8, !tbaa !14
  store ptr %1, ptr %4, align 8, !tbaa !14
  %5 = load ptr, ptr %3, align 8, !tbaa !14
  %6 = load ptr, ptr %4, align 8, !tbaa !14
  %7 = call ptr @OPENSSL_LH_new(ptr noundef %5, ptr noundef %6)
  %8 = call ptr @OPENSSL_LH_set_thunks(ptr noundef %7, ptr noundef @lh_DECODER_CACHE_ENTRY_hfn_thunk, ptr noundef @lh_DECODER_CACHE_ENTRY_cfn_thunk, ptr noundef @lh_DECODER_CACHE_ENTRY_doall_thunk, ptr noundef @lh_DECODER_CACHE_ENTRY_doall_arg_thunk)
  ret ptr %8
}

; Function Attrs: nounwind uwtable
define ptr @ossl_decoder_cache_new(ptr noundef %0) #0 {
  %2 = alloca ptr, align 8
  %3 = alloca ptr, align 8
  %4 = alloca ptr, align 8
  %5 = alloca i32, align 4
  store ptr %0, ptr %3, align 8, !tbaa !15
  call void @llvm.lifetime.start.p0(i64 8, ptr %4) #7
  %6 = call noalias ptr @CRYPTO_malloc(i64 noundef 16, ptr noundef @.str, i32 noundef 690)
  store ptr %6, ptr %4, align 8, !tbaa !14
  %7 = load ptr, ptr %4, align 8, !tbaa !14
  %8 = icmp eq ptr %7, null
  br i1 %8, label %9, label %10

9:                                                ; preds = %1
  store ptr null, ptr %2, align 8
  store i32 1, ptr %5, align 4
  br label %35

10:                                               ; preds = %1
  %11 = call ptr @CRYPTO_THREAD_lock_new()
  %12 = load ptr, ptr %4, align 8, !tbaa !14
  %13 = getelementptr inbounds nuw %struct.DECODER_CACHE, ptr %12, i32 0, i32 0
  store ptr %11, ptr %13, align 8, !tbaa !17
  %14 = load ptr, ptr %4, align 8, !tbaa !14
  %15 = getelementptr inbounds nuw %struct.DECODER_CACHE, ptr %14, i32 0, i32 0
  %16 = load ptr, ptr %15, align 8, !tbaa !17
  %17 = icmp eq ptr %16, null
  br i1 %17, label %18, label %20

18:                                               ; preds = %10
  %19 = load ptr, ptr %4, align 8, !tbaa !14
  call void @CRYPTO_free(ptr noundef %19, ptr noundef @.str, i32 noundef 697)
  store ptr null, ptr %2, align 8
  store i32 1, ptr %5, align 4
  br label %35

20:                                               ; preds = %10
  %21 = call ptr @lh_DECODER_CACHE_ENTRY_new(ptr noundef @decoder_cache_entry_hash, ptr noundef @decoder_cache_entry_cmp)
  %22 = load ptr, ptr %4, align 8, !tbaa !14
  %23 = getelementptr inbounds nuw %struct.DECODER_CACHE, ptr %22, i32 0, i32 1
  store ptr %21, ptr %23, align 8, !tbaa !20
  %24 = load ptr, ptr %4, align 8, !tbaa !14
  %25 = getelementptr inbounds nuw %struct.DECODER_CACHE, ptr %24, i32 0, i32 1
  %26 = load ptr, ptr %25, align 8, !tbaa !20
  %27 = icmp eq ptr %26, null
  br i1 %27, label %28, label %33

28:                                               ; preds = %20
  %29 = load ptr, ptr %4, align 8, !tbaa !14
  %30 = getelementptr inbounds nuw %struct.DECODER_CACHE, ptr %29, i32 0, i32 0
  %31 = load ptr, ptr %30, align 8, !tbaa !17
  call void @CRYPTO_THREAD_lock_free(ptr noundef %31)
  %32 = load ptr, ptr %4, align 8, !tbaa !14
  call void @CRYPTO_free(ptr noundef %32, ptr noundef @.str, i32 noundef 704)
  store ptr null, ptr %2, align 8
  store i32 1, ptr %5, align 4
  br label %35

33:                                               ; preds = %20
  %34 = load ptr, ptr %4, align 8, !tbaa !14
  store ptr %34, ptr %2, align 8
  store i32 1, ptr %5, align 4
  br label %35

35:                                               ; preds = %33, %28, %18, %9
  call void @llvm.lifetime.end.p0(i64 8, ptr %4) #7
  %36 = load ptr, ptr %2, align 8
  ret ptr %36
}