; Function Attrs: nounwind uwtable
define ptr @ossl_decoder_cache_new(ptr noundef readnone captures(none) %0) local_unnamed_addr #0 {
  %2 = tail call noalias ptr @CRYPTO_malloc(i64 noundef 16, ptr noundef nonnull @.str, i32 noundef 690) #7
  %3 = icmp eq ptr %2, null
  br i1 %3, label %14, label %4

4:                                                ; preds = %1
  %5 = tail call ptr @CRYPTO_THREAD_lock_new() #7
  store ptr %5, ptr %2, align 8, !tbaa !3
  %6 = icmp eq ptr %5, null
  br i1 %6, label %.sink.split, label %7

7:                                                ; preds = %4
  %8 = tail call ptr @OPENSSL_LH_new(ptr noundef nonnull @decoder_cache_entry_hash, ptr noundef nonnull @decoder_cache_entry_cmp) #7
  %9 = tail call ptr @OPENSSL_LH_set_thunks(ptr noundef %8, ptr noundef nonnull @lh_DECODER_CACHE_ENTRY_hfn_thunk, ptr noundef nonnull @lh_DECODER_CACHE_ENTRY_cfn_thunk, ptr noundef nonnull @lh_DECODER_CACHE_ENTRY_doall_thunk, ptr noundef nonnull @lh_DECODER_CACHE_ENTRY_doall_arg_thunk) #7
  %10 = getelementptr inbounds nuw i8, ptr %2, i64 8
  store ptr %9, ptr %10, align 8, !tbaa !9
  %11 = icmp eq ptr %9, null
  br i1 %11, label %12, label %14

12:                                               ; preds = %7
  %13 = load ptr, ptr %2, align 8, !tbaa !3
  tail call void @CRYPTO_THREAD_lock_free(ptr noundef %13) #7
  br label %.sink.split

.sink.split:                                      ; preds = %4, %12
  %.sink = phi i32 [ 704, %12 ], [ 697, %4 ]
  tail call void @CRYPTO_free(ptr noundef nonnull %2, ptr noundef nonnull @.str, i32 noundef %.sink) #7
  br label %14

14:                                               ; preds = %.sink.split, %7, %1
  %.0 = phi ptr [ null, %1 ], [ %2, %7 ], [ null, %.sink.split ]
  ret ptr %.0
}